; Function Attrs: mustprogress nofree norecurse nosync nounwind ssp willreturn memory(argmem: readwrite) uwtable
define internal void @_ZN6open3d4core6kernelL21CPUIsInfElementKernelIdEEvPKvPv(ptr noundef readonly captures(none) %0, ptr noundef writeonly captures(none) initializes((0, 1)) %1) #27 {
  %3 = load double, ptr %0, align 8, !tbaa !63
  %4 = fptrunc double %3 to float
  %5 = tail call float @llvm.fabs.f32(float %4)
  %6 = fcmp oeq float %5, 0x7FF0000000000000
  %7 = zext i1 %6 to i8
  store i8 %7, ptr %1, align 1, !tbaa !41
  ret void
}